; Function Attrs: nounwind uwtable
define range(i32 -1, 1) i32 @H5O_msg_reset(i32 noundef %0, ptr noundef %1) local_unnamed_addr #0 {
  %3 = load i8, ptr @H5O_init_g, align 1, !tbaa !3, !range !7, !noundef !8
  %4 = trunc nuw i8 %3 to i1
  %5 = load i8, ptr @H5_libterm_g, align 1, !range !7
  %6 = trunc nuw i8 %5 to i1
  %7 = select i1 %4, i1 true, i1 %6
  br i1 %7, label %15, label %8, !prof !9

8:                                                ; preds = %2
  store i8 1, ptr @H5O_init_g, align 1, !tbaa !3
  %9 = tail call i32 @H5O__init_package() #7
  %10 = icmp slt i32 %9, 0
  br i1 %10, label %11, label %._crit_edge

._crit_edge:                                      ; preds = %8
  %.pre = load i8, ptr @H5O_init_g, align 1, !tbaa !3, !range !7
  %.pre6 = load i8, ptr @H5_libterm_g, align 1, !range !7
  %.pre7 = trunc nuw i8 %.pre to i1
  %.pre8 = trunc nuw i8 %.pre6 to i1
  br label %15

11:                                               ; preds = %8
  store i8 0, ptr @H5O_init_g, align 1, !tbaa !3
  %12 = load i64, ptr @H5E_FUNC_g, align 8, !tbaa !10
  %13 = load i64, ptr @H5E_CANTINIT_g, align 8, !tbaa !10
  %14 = tail call i32 (ptr, ptr, i32, i64, i64, ptr, ...) @H5E_printf_stack(ptr noundef nonnull @.str, ptr noundef nonnull @__func__.H5O_msg_reset, i32 noundef 517, i64 noundef %12, i64 noundef %13, ptr noundef nonnull @.str.1) #7
  br label %H5O__msg_reset_real.exit.thread

15:                                               ; preds = %._crit_edge, %2
  %.pre-phi9 = phi i1 [ %.pre8, %._crit_edge ], [ %6, %2 ]
  %.pre-phi = phi i1 [ %.pre7, %._crit_edge ], [ %4, %2 ]
  %16 = xor i1 %.pre-phi9, true
  %17 = select i1 %.pre-phi, i1 true, i1 %16
  br i1 %17, label %18, label %H5O__msg_reset_real.exit.thread, !prof !9

18:                                               ; preds = %15
  %19 = zext i32 %0 to i64
  %20 = getelementptr inbounds nuw [26 x ptr], ptr @H5O_msg_class_g, i64 0, i64 %19
  %21 = load ptr, ptr %20, align 8, !tbaa !16
  %.not = icmp eq ptr %1, null
  br i1 %.not, label %H5O__msg_reset_real.exit.thread, label %22, !prof !68

22:                                               ; preds = %18
  %23 = getelementptr inbounds nuw i8, ptr %21, i64 64
  %24 = load ptr, ptr %23, align 8, !tbaa !44
  %.not.i = icmp eq ptr %24, null
  br i1 %.not.i, label %28, label %25

25:                                               ; preds = %22
  %26 = tail call i32 %24(ptr noundef nonnull %1) #7
  %27 = icmp slt i32 %26, 0
  br i1 %27, label %31, label %H5O__msg_reset_real.exit.thread

28:                                               ; preds = %22
  %29 = getelementptr inbounds nuw i8, ptr %21, i64 16
  %30 = load i64, ptr %29, align 8, !tbaa !45
  tail call void @llvm.memset.p0.i64(ptr nonnull align 1 %1, i8 0, i64 %30, i1 false)
  br label %H5O__msg_reset_real.exit.thread

31:                                               ; preds = %25
  %32 = load i64, ptr @H5E_OHDR_g, align 8, !tbaa !10
  %33 = load i64, ptr @H5E_CANTRELEASE_g, align 8, !tbaa !10
  %34 = tail call i32 (ptr, ptr, i32, i64, i64, ptr, ...) @H5E_printf_stack(ptr noundef nonnull @.str, ptr noundef nonnull @__func__.H5O__msg_reset_real, i32 noundef 556, i64 noundef %32, i64 noundef %33, ptr noundef nonnull @.str.47) #7
  %35 = load i64, ptr @H5E_OHDR_g, align 8, !tbaa !10
  %36 = load i64, ptr @H5E_CANTRESET_g, align 8, !tbaa !10
  %37 = tail call i32 (ptr, ptr, i32, i64, i64, ptr, ...) @H5E_printf_stack(ptr noundef nonnull @.str, ptr noundef nonnull @__func__.H5O_msg_reset, i32 noundef 526, i64 noundef %35, i64 noundef %36, ptr noundef nonnull @.str.20) #7
  br label %H5O__msg_reset_real.exit.thread

H5O__msg_reset_real.exit.thread:                  ; preds = %18, %28, %25, %11, %31, %15
  %.0 = phi i32 [ -1, %11 ], [ -1, %31 ], [ 0, %15 ], [ 0, %25 ], [ 0, %28 ], [ 0, %18 ]
  ret i32 %.0
}